; Function Attrs: mustprogress uwtable
define noundef i32 @_ZNK6icu_776number4impl30CurrencySpacingEnabledModifier5applyERNS_22FormattedStringBuilderEiiR10UErrorCode(ptr noundef nonnull align 8 dereferenceable(832) %0, ptr noundef nonnull align 8 dereferenceable(136) %1, i32 noundef %2, i32 noundef %3, ptr noundef nonnull align 4 dereferenceable(4) %4) unnamed_addr #4 align 2 personality ptr @__gxx_personality_v0 {
  %6 = alloca %"class.icu_77::UnicodeString", align 8
  %7 = icmp sgt i32 %3, %2
  br i1 %7, label %8, label %32

8:                                                ; preds = %5
  %9 = getelementptr inbounds nuw i8, ptr %0, i64 336
  %10 = load i8, ptr %9, align 8, !tbaa !61
  %11 = and i8 %10, 1
  %.not = icmp eq i8 %11, 0
  br i1 %.not, label %12, label %19

12:                                               ; preds = %8
  %13 = getelementptr inbounds nuw i8, ptr %0, i64 304
  %14 = tail call noundef i32 @_ZNK6icu_7722FormattedStringBuilder11codePointAtEi(ptr noundef nonnull align 8 dereferenceable(136) %1, i32 noundef %2)
  %15 = tail call noundef signext i8 @_ZNK6icu_7710UnicodeSet8containsEi(ptr noundef nonnull align 8 dereferenceable(200) %13, i32 noundef %14)
  %.not25 = icmp eq i8 %15, 0
  br i1 %.not25, label %19, label %16

16:                                               ; preds = %12
  %17 = getelementptr inbounds nuw i8, ptr %0, i64 504
  %18 = tail call noundef i32 @_ZN6icu_7722FormattedStringBuilder6insertEiRKNS_13UnicodeStringENS0_5FieldER10UErrorCode(ptr noundef nonnull align 8 dereferenceable(136) %1, i32 noundef %2, ptr noundef nonnull align 8 dereferenceable(64) %17, i8 0, ptr noundef nonnull align 4 dereferenceable(4) %4)
  br label %19

19:                                               ; preds = %16, %12, %8
  %.0.ph = phi i32 [ 0, %12 ], [ %18, %16 ], [ 0, %8 ]
  %20 = getelementptr inbounds nuw i8, ptr %0, i64 600
  %21 = load i8, ptr %20, align 8, !tbaa !61
  %22 = and i8 %21, 1
  %.not26 = icmp eq i8 %22, 0
  br i1 %.not26, label %23, label %32

23:                                               ; preds = %19
  %24 = getelementptr inbounds nuw i8, ptr %0, i64 568
  %25 = tail call noundef i32 @_ZNK6icu_7722FormattedStringBuilder15codePointBeforeEi(ptr noundef nonnull align 8 dereferenceable(136) %1, i32 noundef %3)
  %26 = tail call noundef signext i8 @_ZNK6icu_7710UnicodeSet8containsEi(ptr noundef nonnull align 8 dereferenceable(200) %24, i32 noundef %25)
  %.not27 = icmp eq i8 %26, 0
  br i1 %.not27, label %32, label %27

27:                                               ; preds = %23
  %28 = add nsw i32 %.0.ph, %3
  %29 = getelementptr inbounds nuw i8, ptr %0, i64 768
  %30 = tail call noundef i32 @_ZN6icu_7722FormattedStringBuilder6insertEiRKNS_13UnicodeStringENS0_5FieldER10UErrorCode(ptr noundef nonnull align 8 dereferenceable(136) %1, i32 noundef %28, ptr noundef nonnull align 8 dereferenceable(64) %29, i8 0, ptr noundef nonnull align 4 dereferenceable(4) %4)
  %31 = add nsw i32 %30, %.0.ph
  br label %32

32:                                               ; preds = %5, %27, %23, %19
  %.1 = phi i32 [ %.0.ph, %19 ], [ %31, %27 ], [ %.0.ph, %23 ], [ 0, %5 ]
  %33 = add nsw i32 %.1, %3
  %34 = getelementptr inbounds nuw i8, ptr %0, i64 8
  %35 = tail call noundef i32 @_ZN6icu_7722FormattedStringBuilder6insertEiRKS0_R10UErrorCode(ptr noundef nonnull align 8 dereferenceable(136) %1, i32 noundef %2, ptr noundef nonnull align 8 dereferenceable(136) %34, ptr noundef nonnull align 4 dereferenceable(4) %4)
  %36 = getelementptr inbounds nuw i8, ptr %0, i64 280
  %37 = load i8, ptr %36, align 8, !tbaa !48, !range !30, !noundef !31
  %38 = trunc nuw i8 %37 to i1
  br i1 %38, label %39, label %_ZNK6icu_776number4impl26ConstantMultiFieldModifier5applyERNS_22FormattedStringBuilderEiiR10UErrorCode.exit

39:                                               ; preds = %32
  %40 = add nsw i32 %35, %2
  %41 = add nsw i32 %35, %33
  call void @llvm.lifetime.start.p0(i64 64, ptr nonnull %6) #19
  store ptr getelementptr inbounds nuw inrange(-16, 88) (i8, ptr @_ZTVN6icu_7713UnicodeStringE, i64 16), ptr %6, align 8, !tbaa !13
  %42 = getelementptr inbounds nuw i8, ptr %6, i64 8
  store i16 2, ptr %42, align 8, !tbaa !21
  %43 = invoke noundef i32 @_ZN6icu_7722FormattedStringBuilder6spliceEiiRKNS_13UnicodeStringEiiNS0_5FieldER10UErrorCode(ptr noundef nonnull align 8 dereferenceable(136) %1, i32 noundef %40, i32 noundef %41, ptr noundef nonnull align 8 dereferenceable(64) %6, i32 noundef 0, i32 noundef 0, i8 0, ptr noundef nonnull align 4 dereferenceable(4) %4)
          to label %44 unwind label %46

44:                                               ; preds = %39
  %45 = add nsw i32 %43, %35
  call void @_ZN6icu_7713UnicodeStringD1Ev(ptr noundef nonnull align 8 dereferenceable(64) %6) #19
  call void @llvm.lifetime.end.p0(i64 64, ptr nonnull %6) #19
  br label %_ZNK6icu_776number4impl26ConstantMultiFieldModifier5applyERNS_22FormattedStringBuilderEiiR10UErrorCode.exit

46:                                               ; preds = %39
  %47 = landingpad { ptr, i32 }
          cleanup
  call void @_ZN6icu_7713UnicodeStringD1Ev(ptr noundef nonnull align 8 dereferenceable(64) %6) #19
  call void @llvm.lifetime.end.p0(i64 64, ptr nonnull %6) #19
  resume { ptr, i32 } %47

_ZNK6icu_776number4impl26ConstantMultiFieldModifier5applyERNS_22FormattedStringBuilderEiiR10UErrorCode.exit: ; preds = %32, %44
  %.0.i = phi i32 [ %45, %44 ], [ %35, %32 ]
  %48 = add nsw i32 %.0.i, %33
  %49 = getelementptr inbounds nuw i8, ptr %0, i64 144
  %50 = call noundef i32 @_ZN6icu_7722FormattedStringBuilder6insertEiRKS0_R10UErrorCode(ptr noundef nonnull align 8 dereferenceable(136) %1, i32 noundef %48, ptr noundef nonnull align 8 dereferenceable(136) %49, ptr noundef nonnull align 4 dereferenceable(4) %4)
  %51 = add i32 %.0.i, %.1
  %52 = add i32 %51, %50
  ret i32 %52
}